; Function Attrs: nounwind sspstrong uwtable
define internal void @mirror_wait_for_free_in_flight_slot(ptr noundef readonly captures(none) %s) #0 {
entry:
  %ops_in_flight = getelementptr inbounds nuw i8, ptr %s, i64 720
  %op.07 = load ptr, ptr %ops_in_flight, align 8
  %tobool.not8 = icmp eq ptr %op.07, null
  br i1 %tobool.not8, label %for.end, label %for.body

for.body:                                         ; preds = %entry, %for.inc
  %op.09 = phi ptr [ %op.0, %for.inc ], [ %op.07, %entry ]
  %is_pseudo_op = getelementptr inbounds nuw i8, ptr %op.09, i64 72
  %0 = load i8, ptr %is_pseudo_op, align 8
  %tobool1 = trunc i8 %0 to i1
  br i1 %tobool1, label %for.inc, label %land.lhs.true

land.lhs.true:                                    ; preds = %for.body
  %is_in_flight = getelementptr inbounds nuw i8, ptr %op.09, i64 74
  %1 = load i8, ptr %is_in_flight, align 2
  %tobool2 = trunc i8 %1 to i1
  br i1 %tobool2, label %land.lhs.true3, label %for.inc

land.lhs.true3:                                   ; preds = %land.lhs.true
  %is_active_write = getelementptr inbounds nuw i8, ptr %op.09, i64 73
  %2 = load i8, ptr %is_active_write, align 1
  %tobool4 = trunc i8 %2 to i1
  br i1 %tobool4, label %for.inc, label %qemu_null_lockable.exit

qemu_null_lockable.exit:                          ; preds = %land.lhs.true3
  %waiting_requests = getelementptr inbounds nuw i8, ptr %op.09, i64 80
  tail call void @qemu_co_queue_wait_impl(ptr noundef nonnull %waiting_requests, ptr noundef null, i32 noundef 0) #12
  ret void

for.inc:                                          ; preds = %for.body, %land.lhs.true, %land.lhs.true3
  %next = getelementptr inbounds nuw i8, ptr %op.09, i64 112
  %op.0 = load ptr, ptr %next, align 8
  %tobool.not = icmp eq ptr %op.0, null
  br i1 %tobool.not, label %for.end, label %for.body, !llvm.loop !11

for.end:                                          ; preds = %for.inc, %entry
  tail call void @abort() #13
  unreachable
}